Certificate:
    Data:
        Version: 3 (0x2)
        Serial Number: 1 (0x1)
        Signature Algorithm: sha256WithRSAEncryption
        Issuer: C=ID, ST=Riau, L=Bagansiapiapi, O=wildysheverando, OU=wildysheverando, CN=wildysheverando CA/name=wildysheverando/emailAddress=wildyverando.net@gmail.com
        Validity
            Not Before: Apr  2 05:52:12 2021 GMT
            Not After : Mar 31 05:52:12 2031 GMT
        Subject: C=ID, ST=Riau, L=Bagansiapiapi, O=wildysheverando, OU=wildysheverando, CN=server/name=wildysheverando/emailAddress=wildyverando.net@gmail.com
        Subject Public Key Info:
            Public Key Algorithm: rsaEncryption
                RSA Public-Key: (2048 bit)
                Modulus:
                    00:ae:d0:be:8f:06:30:0d:3d:9d:79:a4:20:0c:e1:
                    33:cd:50:da:88:25:56:91:57:19:fb:e0:23:b4:ce:
                    5d:44:bd:4f:e8:62:64:fc:11:f1:8f:9c:da:08:bc:
                    be:52:b6:b7:83:8b:0a:fd:90:b6:96:f2:74:ee:96:
                    fa:22:e0:11:2a:79:9e:77:42:0b:bb:47:0b:d9:d8:
                    15:9d:6e:53:86:bc:63:79:34:8d:a4:95:09:9c:64:
                    8a:31:65:05:5b:2d:95:1e:e1:d4:f1:8e:19:f9:99:
                    d3:23:96:76:dc:03:c6:16:98:fd:cd:9f:b0:0e:2c:
                    1e:5e:6d:7e:7b:dd:8a:f1:80:75:3b:26:eb:b8:f9:
                    7f:01:bb:6f:85:6e:22:b1:48:aa:69:55:95:a3:33:
                    26:1f:d5:af:01:8d:af:2f:4b:a3:6e:0e:c4:40:38:
                    5f:61:e2:a9:eb:3e:c7:c4:72:3a:e3:0a:f6:18:20:
                    c3:b0:78:07:45:f3:b3:e3:41:bf:86:d7:10:1c:68:
                    e7:35:2e:1f:7c:0e:7f:80:d8:67:b9:b4:18:f5:5a:
                    3e:d4:98:e0:2a:9c:f3:71:47:d5:61:c1:5b:22:3d:
                    d8:26:82:11:2f:22:f8:6f:3e:5e:f4:1c:72:74:94:
                    72:0a:db:e7:39:d8:15:d4:5a:33:81:14:06:25:ae:
                    c4:37
                Exponent: 65537 (0x10001)
        X509v3 extensions:
            X509v3 Basic Constraints: 
                CA:FALSE
            Netscape Cert Type: 
                SSL Server
            Netscape Comment: 
                Easy-RSA Generated Server Certificate
            X509v3 Subject Key Identifier: 
                48:C1:C3:AE:E7:28:38:15:3E:34:4B:DB:BC:69:8E:EB:D4:76:AD:C7
            X509v3 Authority Key Identifier: 
                keyid:CE:1C:99:9A:8C:B0:86:1E:B5:93:69:8A:D9:7F:65:6D:74:DB:88:89
                DirName:/C=ID/ST=Riau/L=Bagansiapiapi/O=wildysheverando/OU=wildysheverando/CN=wildysheverando CA/name=wildysheverando/emailAddress=wildyverando.net@gmail.com
                serial:66:7E:F1:5D:84:B4:96:9F:E9:81:0B:C3:CD:0E:0C:BC:52:E9:BC:AF

            X509v3 Extended Key Usage: 
                TLS Web Server Authentication
            X509v3 Key Usage: 
                Digital Signature, Key Encipherment
    Signature Algorithm: sha256WithRSAEncryption
         43:0a:fc:0c:7f:35:48:93:8e:46:e7:6d:ba:5c:af:12:f8:81:
         f2:a6:c8:7d:1d:38:7e:1e:cd:d0:55:6a:60:9c:72:4d:00:10:
         04:78:10:00:97:4a:c0:5f:24:fb:66:d9:90:99:5a:a4:91:f2:
         bf:79:9e:d3:4c:b1:1a:fb:93:c2:6c:08:fc:d1:c6:e1:cc:bd:
         63:7b:53:b6:e0:3c:e4:67:c8:68:3c:14:fb:95:3a:97:45:f5:
         34:b0:e3:60:f2:17:02:ef:1a:07:34:38:cc:dd:e2:94:69:65:
         1e:e9:12:06:ef:d9:91:0c:b6:8a:9c:f7:00:51:ad:93:2e:e8:
         8a:fe:70:30:5d:ef:53:c1:6e:c9:19:8a:bb:b8:90:03:2b:1f:
         61:13:d5:15:18:4b:2d:06:af:98:da:bd:85:2e:06:c8:58:43:
         28:41:9f:cf:5c:6e:50:51:aa:54:41:17:90:8c:31:6a:9c:3d:
         85:1b:b7:5b:a0:e6:be:98:a4:f4:26:d4:aa:ed:c9:69:16:54:
         c1:4c:50:52:26:d9:a9:c2:28:bb:80:2b:69:a6:6c:5a:4e:d7:
         dc:35:cd:d8:04:ae:dc:a1:1b:db:ba:e5:74:f0:20:b8:95:ca:
         8d:80:d6:0e:60:4a:5c:2c:32:e0:8c:61:10:5c:4a:79:14:d6:
         7d:8b:22:ab
-----BEGIN CERTIFICATE-----
MIIFrzCCBJegAwIBAgIBATANBgkqhkiG9w0BAQsFADCByjELMAkGA1UEBhMCSUQx
DTALBgNVBAgTBFJpYXUxFjAUBgNVBAcTDUJhZ2Fuc2lhcGlhcGkxGDAWBgNVBAoT
D3dpbGR5c2hldmVyYW5kbzEYMBYGA1UECxMPd2lsZHlzaGV2ZXJhbmRvMRswGQYD
VQQDExJ3aWxkeXNoZXZlcmFuZG8gQ0ExGDAWBgNVBCkTD3dpbGR5c2hldmVyYW5k
bzEpMCcGCSqGSIb3DQEJARYad2lsZHl2ZXJhbmRvLm5ldEBnbWFpbC5jb20wHhcN
MjEwNDAyMDU1MjEyWhcNMzEwMzMxMDU1MjEyWjCBvjELMAkGA1UEBhMCSUQxDTAL
BgNVBAgTBFJpYXUxFjAUBgNVBAcTDUJhZ2Fuc2lhcGlhcGkxGDAWBgNVBAoTD3dp
bGR5c2hldmVyYW5kbzEYMBYGA1UECxMPd2lsZHlzaGV2ZXJhbmRvMQ8wDQYDVQQD
EwZzZXJ2ZXIxGDAWBgNVBCkTD3dpbGR5c2hldmVyYW5kbzEpMCcGCSqGSIb3DQEJ
ARYad2lsZHl2ZXJhbmRvLm5ldEBnbWFpbC5jb20wggEiMA0GCSqGSIb3DQEBAQUA
A4IBDwAwggEKAoIBAQCu0L6PBjANPZ15pCAM4TPNUNqIJVaRVxn74CO0zl1EvU/o
YmT8EfGPnNoIvL5StreDiwr9kLaW8nTulvoi4BEqeZ53Qgu7RwvZ2BWdblOGvGN5
NI2klQmcZIoxZQVbLZUe4dTxjhn5mdMjlnbcA8YWmP3Nn7AOLB5ebX573YrxgHU7
Juu4+X8Bu2+FbiKxSKppVZWjMyYf1a8Bja8vS6NuDsRAOF9h4qnrPsfEcjrjCvYY
IMOweAdF87PjQb+G1xAcaOc1Lh98Dn+A2Ge5tBj1Wj7UmOAqnPNxR9VhwVsiPdgm
ghEvIvhvPl70HHJ0lHIK2+c52BXUWjOBFAYlrsQ3AgMBAAGjggGoMIIBpDAJBgNV
HRMEAjAAMBEGCWCGSAGG+EIBAQQEAwIGQDA0BglghkgBhvhCAQ0EJxYlRWFzeS1S
U0EgR2VuZXJhdGVkIFNlcnZlciBDZXJ0aWZpY2F0ZTAdBgNVHQ4EFgQUSMHDruco
OBU+NEvbvGmO69R2rccwggELBgNVHSMEggECMIH/gBTOHJmajLCGHrWTaYrZf2Vt
dNuIiaGB0KSBzTCByjELMAkGA1UEBhMCSUQxDTALBgNVBAgTBFJpYXUxFjAUBgNV
BAcTDUJhZ2Fuc2lhcGlhcGkxGDAWBgNVBAoTD3dpbGR5c2hldmVyYW5kbzEYMBYG
A1UECxMPd2lsZHlzaGV2ZXJhbmRvMRswGQYDVQQDExJ3aWxkeXNoZXZlcmFuZG8g
Q0ExGDAWBgNVBCkTD3dpbGR5c2hldmVyYW5kbzEpMCcGCSqGSIb3DQEJARYad2ls
ZHl2ZXJhbmRvLm5ldEBnbWFpbC5jb22CFGZ+8V2EtJaf6YELw80ODLxS6byvMBMG
A1UdJQQMMAoGCCsGAQUFBwMBMAsGA1UdDwQEAwIFoDANBgkqhkiG9w0BAQsFAAOC
AQEAQwr8DH81SJOORudtulyvEviB8qbIfR04fh7N0FVqYJxyTQAQBHgQAJdKwF8k
+2bZkJlapJHyv3me00yxGvuTwmwI/NHG4cy9Y3tTtuA85GfIaDwU+5U6l0X1NLDj
YPIXAu8aBzQ4zN3ilGllHukSBu/ZkQy2ipz3AFGtky7oiv5wMF3vU8FuyRmKu7iQ
AysfYRPVFRhLLQavmNq9hS4GyFhDKEGfz1xuUFGqVEEXkIwxapw9hRu3W6Dmvpik
9CbUqu3JaRZUwUxQUibZqcIou4AraaZsWk7X3DXN2ASu3KEb27rldPAguJXKjYDW
DmBKXCwy4IxhEFxKeRTWfYsiqw==
-----END CERTIFICATE-----
